Certificate:
    Data:
        Version: 3 (0x2)
        Serial Number: 2097152 (0x200000)
        Signature Algorithm: md5WithRSAEncryption
        Issuer: O=organization, OU=unit/emailAddress=security@solar.lan, L=city, ST=state, C=US, CN=ca.solar.lan
        Validity
            Not Before: Apr 14 20:51:26 2011 GMT
            Not After : Apr 11 20:51:26 2021 GMT
        Subject: C=US, ST=state, O=organization, OU=unit, L=city, CN=clearos.solar.lan/emailAddress=security@solar.lan
        Subject Public Key Info:
            Public Key Algorithm: rsaEncryption
            RSA Public Key: (2048 bit)
                Modulus (2048 bit):
                    00:d3:c8:80:1c:38:08:d0:0c:c2:3b:04:80:d4:5b:
                    97:ca:14:24:c8:a1:89:17:0b:27:5a:b2:20:39:b2:
                    51:01:b7:2e:18:de:c6:63:82:59:58:b1:ca:a1:11:
                    14:09:ac:0f:62:1c:23:be:33:5c:14:df:87:b6:d1:
                    eb:06:3d:68:df:ac:a0:11:12:0a:22:3d:67:74:ec:
                    29:c7:85:fb:14:9b:a9:77:e9:a7:43:a7:e3:90:5d:
                    7c:b3:ef:6f:d6:fe:eb:e5:55:a3:d2:39:81:51:24:
                    93:e4:57:84:1a:85:21:7d:68:aa:e1:15:13:e6:89:
                    99:fe:01:c9:bf:b6:30:55:55:d2:d0:bf:22:bf:c8:
                    82:c3:27:2b:76:44:1b:f8:74:31:1e:4d:b4:44:43:
                    57:1d:e4:b6:82:05:0e:04:f6:26:ab:6d:a2:85:9c:
                    df:47:cb:64:65:5f:f4:34:76:be:92:02:77:7e:b0:
                    4d:0f:0c:01:b2:ec:7e:69:8d:50:8e:17:b6:f6:cf:
                    e4:b2:c5:9f:26:3a:40:47:1e:13:5c:19:c8:63:68:
                    eb:39:45:a1:45:62:4f:15:88:a2:0e:65:24:08:77:
                    9a:f1:7e:a7:0f:f4:f6:d8:b3:69:55:4d:cc:90:d7:
                    a9:43:00:71:4a:59:c9:1f:57:f8:37:82:cc:8c:4f:
                    6e:1f
                Exponent: 65537 (0x10001)
        X509v3 extensions:
            X509v3 Basic Constraints: 
                CA:FALSE
            X509v3 Subject Key Identifier: 
                A6:99:6E:A4:E8:DA:FA:83:45:83:2E:D5:DD:78:31:D1:4A:33:46:3A
            Netscape Cert Type: 
                SSL Server
    Signature Algorithm: md5WithRSAEncryption
        77:6c:06:fd:93:6c:7f:7a:71:e2:05:3a:72:09:e8:00:a0:ab:
        ee:ca:dd:8a:d3:fb:fc:15:96:f6:75:fb:22:53:72:89:1f:ef:
        0d:ed:04:e1:ec:8a:02:6c:93:69:58:40:0b:dc:a7:cd:48:cc:
        cd:38:c5:84:65:9b:69:ac:71:cb:65:6c:a3:ab:99:fe:b2:a9:
        01:e3:17:2f:79:23:81:40:6e:2d:3e:88:9f:fc:00:03:cc:06:
        0d:ad:9e:64:22:ee:c6:19:55:ec:0d:91:40:e0:83:41:e9:c8:
        e0:8d:32:c6:32:eb:10:c1:70:ef:1c:0e:ac:a8:79:d6:71:7f:
        51:10:4c:da:15:0d:8e:34:38:5e:c9:fc:9e:87:57:9f:d3:2d:
        07:7d:f6:a6:4d:20:7b:76:6b:41:69:74:ef:ce:74:75:ee:9e:
        44:33:f2:28:4d:77:ed:4d:88:15:44:5c:65:52:89:78:75:99:
        36:c3:44:96:8a:67:c2:61:24:80:50:03:50:8a:8e:c9:71:ef:
        cd:7e:1f:eb:4a:db:65:8e:07:64:51:be:cb:d5:d4:89:60:32:
        a7:09:44:80:0f:a4:0a:98:ad:18:b3:d7:f1:f1:00:d2:e0:96:
        cf:b2:13:4f:13:24:1c:d6:3d:97:1e:93:78:20:9f:bf:70:2b:
        e6:df:b5:8d
-----BEGIN CERTIFICATE-----
MIID2zCCAsOgAwIBAgIDIAAAMA0GCSqGSIb3DQEBBAUAMIGMMRUwEwYDVQQKEwxv
cmdhbml6YXRpb24xDTALBgNVBAsTBHVuaXQxITAfBgkqhkiG9w0BCQEWEnNlY3Vy
aXR5QHNvbGFyLmxhbjENMAsGA1UEBxMEY2l0eTEOMAwGA1UECBMFc3RhdGUxCzAJ
BgNVBAYTAlVTMRUwEwYDVQQDEwxjYS5zb2xhci5sYW4wHhcNMTEwNDE0MjA1MTI2
WhcNMjEwNDExMjA1MTI2WjCBkTELMAkGA1UEBhMCVVMxDjAMBgNVBAgTBXN0YXRl
MRUwEwYDVQQKEwxvcmdhbml6YXRpb24xDTALBgNVBAsTBHVuaXQxDTALBgNVBAcT
BGNpdHkxGjAYBgNVBAMTEWNsZWFyb3Muc29sYXIubGFuMSEwHwYJKoZIhvcNAQkB
FhJzZWN1cml0eUBzb2xhci5sYW4wggEiMA0GCSqGSIb3DQEBAQUAA4IBDwAwggEK
AoIBAQDTyIAcOAjQDMI7BIDUW5fKFCTIoYkXCydasiA5slEBty4Y3sZjgllYscqh
ERQJrA9iHCO+M1wU34e20esGPWjfrKAREgoiPWd07CnHhfsUm6l36adDp+OQXXyz
72/W/uvlVaPSOYFRJJPkV4QahSF9aKrhFRPmiZn+Acm/tjBVVdLQvyK/yILDJyt2
RBv4dDEeTbREQ1cd5LaCBQ4E9iarbaKFnN9Hy2RlX/Q0dr6SAnd+sE0PDAGy7H5p
jVCOF7b2z+SyxZ8mOkBHHhNcGchjaOs5RaFFYk8ViKIOZSQId5rxfqcP9PbYs2lV
TcyQ16lDAHFKWckfV/g3gsyMT24fAgMBAAGjPzA9MAkGA1UdEwQCMAAwHQYDVR0O
BBYEFKaZbqTo2vqDRYMu1d14MdFKM0Y6MBEGCWCGSAGG+EIBAQQEAwIGQDANBgkq
hkiG9w0BAQQFAAOCAQEAd2wG/ZNsf3px4gU6cgnoAKCr7srditP7/BWW9nX7IlNy
iR/vDe0E4eyKAmyTaVhAC9ynzUjMzTjFhGWbaaxxy2Vso6uZ/rKpAeMXL3kjgUBu
LT6In/wAA8wGDa2eZCLuxhlV7A2RQOCDQenI4I0yxjLrEMFw7xwOrKh51nF/URBM
2hUNjjQ4Xsn8nodXn9MtB332pk0ge3ZrQWl07850de6eRDPyKE137U2IFURcZVKJ
eHWZNsNElopnwmEkgFADUIqOyXHvzX4f60rbZY4HZFG+y9XUiWAypwlEgA+kCpit
GLPX8fEA0uCWz7ITTxMkHNY9lx6TeCCfv3Ar5t+1jQ==
-----END CERTIFICATE-----
